target datalayout = "e-m:e-p270:32:32-p271:32:32-p272:64:64-i64:64-i128:128-f80:128-n8:16:32:64-S128"
target triple = "x86_64-pc-linux-gnu"

%struct.AVTaskCallbacks = type { ptr, i32, ptr, ptr, ptr }
%struct.AVExecutor = type { %struct.AVTaskCallbacks, i32, i8, ptr, ptr, %union.pthread_mutex_t, %union.pthread_cond_t, i32, ptr }
%union.pthread_mutex_t = type { %struct.__pthread_mutex_s }
%struct.__pthread_mutex_s = type { i32, i32, i32, i32, i32, i16, i16, %struct.__pthread_internal_list }
%struct.__pthread_internal_list = type { ptr, ptr }
%union.pthread_cond_t = type { %struct.__pthread_cond_s }
%struct.__pthread_cond_s = type { %union.__atomic_wide_counter, %union.__atomic_wide_counter, [2 x i32], [2 x i32], i32, i32, [2 x i32] }
%union.__atomic_wide_counter = type { i64 }
%struct.ThreadInfo = type { ptr, i64 }

; Function Attrs: nounwind uwtable
define internal void @executor_free(ptr noundef %0, i32 noundef %1, i32 noundef %2) #0 {
  %4 = alloca ptr, align 8
  %5 = alloca i32, align 4
  %6 = alloca i32, align 4
  %7 = alloca i32, align 4
  store ptr %0, ptr %4, align 8, !tbaa !16
  store i32 %1, ptr %5, align 4, !tbaa !9
  store i32 %2, ptr %6, align 4, !tbaa !9
  %8 = load ptr, ptr %4, align 8, !tbaa !16
  %9 = getelementptr inbounds nuw %struct.AVExecutor, ptr %8, i32 0, i32 1
  %10 = load i32, ptr %9, align 8, !tbaa !28
  %11 = icmp ne i32 %10, 0
  br i1 %11, label %12, label %45

12:                                               ; preds = %3
  %13 = load ptr, ptr %4, align 8, !tbaa !16
  %14 = getelementptr inbounds nuw %struct.AVExecutor, ptr %13, i32 0, i32 5
  %15 = call i32 @pthread_mutex_lock(ptr noundef %14) #5
  %16 = load ptr, ptr %4, align 8, !tbaa !16
  %17 = getelementptr inbounds nuw %struct.AVExecutor, ptr %16, i32 0, i32 7
  store i32 1, ptr %17, align 8, !tbaa !35
  %18 = load ptr, ptr %4, align 8, !tbaa !16
  %19 = getelementptr inbounds nuw %struct.AVExecutor, ptr %18, i32 0, i32 6
  %20 = call i32 @pthread_cond_broadcast(ptr noundef %19) #5
  %21 = load ptr, ptr %4, align 8, !tbaa !16
  %22 = getelementptr inbounds nuw %struct.AVExecutor, ptr %21, i32 0, i32 5
  %23 = call i32 @pthread_mutex_unlock(ptr noundef %22) #5
  call void @llvm.lifetime.start.p0(i64 4, ptr %7) #5
  store i32 0, ptr %7, align 4, !tbaa !9
  br label %24

24:                                               ; preds = %41, %12
  %25 = load i32, ptr %7, align 4, !tbaa !9
  %26 = load ptr, ptr %4, align 8, !tbaa !16
  %27 = getelementptr inbounds nuw %struct.AVExecutor, ptr %26, i32 0, i32 1
  %28 = load i32, ptr %27, align 8, !tbaa !28
  %29 = icmp slt i32 %25, %28
  br i1 %29, label %31, label %30

30:                                               ; preds = %24
  call void @llvm.lifetime.end.p0(i64 4, ptr %7) #5
  br label %44

31:                                               ; preds = %24
  %32 = load ptr, ptr %4, align 8, !tbaa !16
  %33 = getelementptr inbounds nuw %struct.AVExecutor, ptr %32, i32 0, i32 3
  %34 = load ptr, ptr %33, align 8, !tbaa !27
  %35 = load i32, ptr %7, align 4, !tbaa !9
  %36 = sext i32 %35 to i64
  %37 = getelementptr inbounds %struct.ThreadInfo, ptr %34, i64 %36
  %38 = getelementptr inbounds nuw %struct.ThreadInfo, ptr %37, i32 0, i32 1
  %39 = load i64, ptr %38, align 8, !tbaa !36
  %40 = call i32 @pthread_join(i64 noundef %39, ptr noundef null)
  br label %41

41:                                               ; preds = %31
  %42 = load i32, ptr %7, align 4, !tbaa !9
  %43 = add nsw i32 %42, 1
  store i32 %43, ptr %7, align 4, !tbaa !9
  br label %24, !llvm.loop !37

44:                                               ; preds = %30
  br label %45

45:                                               ; preds = %44, %3
  %46 = load i32, ptr %6, align 4, !tbaa !9
  %47 = icmp ne i32 %46, 0
  br i1 %47, label %48, label %52

48:                                               ; preds = %45
  %49 = load ptr, ptr %4, align 8, !tbaa !16
  %50 = getelementptr inbounds nuw %struct.AVExecutor, ptr %49, i32 0, i32 6
  %51 = call i32 @pthread_cond_destroy(ptr noundef %50) #5
  br label %52

52:                                               ; preds = %48, %45
  %53 = load i32, ptr %5, align 4, !tbaa !9
  %54 = icmp ne i32 %53, 0
  br i1 %54, label %55, label %59

55:                                               ; preds = %52
  %56 = load ptr, ptr %4, align 8, !tbaa !16
  %57 = getelementptr inbounds nuw %struct.AVExecutor, ptr %56, i32 0, i32 5
  %58 = call i32 @pthread_mutex_destroy(ptr noundef %57) #5
  br label %59

59:                                               ; preds = %55, %52
  %60 = load ptr, ptr %4, align 8, !tbaa !16
  %61 = getelementptr inbounds nuw %struct.AVExecutor, ptr %60, i32 0, i32 3
  %62 = load ptr, ptr %61, align 8, !tbaa !27
  call void @av_free(ptr noundef %62)
  %63 = load ptr, ptr %4, align 8, !tbaa !16
  %64 = getelementptr inbounds nuw %struct.AVExecutor, ptr %63, i32 0, i32 4
  %65 = load ptr, ptr %64, align 8, !tbaa !26
  call void @av_free(ptr noundef %65)
  %66 = load ptr, ptr %4, align 8, !tbaa !16
  call void @av_free(ptr noundef %66)
  ret void
}