; Function Attrs: nounwind uwtable
define internal fastcc void @executor_free(ptr noundef nonnull %0, i32 noundef %1, i32 noundef %2) unnamed_addr #0 {
  %4 = getelementptr inbounds nuw i8, ptr %0, i64 40
  %5 = load i32, ptr %4, align 8, !tbaa !24
  %.not = icmp eq i32 %5, 0
  br i1 %.not, label %.loopexit, label %6

6:                                                ; preds = %3
  %7 = getelementptr inbounds nuw i8, ptr %0, i64 64
  %8 = tail call i32 @pthread_mutex_lock(ptr noundef nonnull %7) #5
  %9 = getelementptr inbounds nuw i8, ptr %0, i64 152
  store i32 1, ptr %9, align 8, !tbaa !31
  %10 = getelementptr inbounds nuw i8, ptr %0, i64 104
  %11 = tail call i32 @pthread_cond_broadcast(ptr noundef nonnull %10) #5
  %12 = tail call i32 @pthread_mutex_unlock(ptr noundef nonnull %7) #5
  %13 = load i32, ptr %4, align 8, !tbaa !24
  %14 = icmp sgt i32 %13, 0
  br i1 %14, label %.lr.ph, label %.loopexit

.lr.ph:                                           ; preds = %6
  %15 = getelementptr inbounds nuw i8, ptr %0, i64 48
  br label %16

16:                                               ; preds = %.lr.ph, %16
  %indvars.iv = phi i64 [ 0, %.lr.ph ], [ %indvars.iv.next, %16 ]
  %17 = load ptr, ptr %15, align 8, !tbaa !23
  %18 = getelementptr inbounds nuw %struct.ThreadInfo, ptr %17, i64 %indvars.iv, i32 1
  %19 = load i64, ptr %18, align 8, !tbaa !36
  %20 = tail call i32 @pthread_join(i64 noundef %19, ptr noundef null) #5
  %indvars.iv.next = add nuw nsw i64 %indvars.iv, 1
  %21 = load i32, ptr %4, align 8, !tbaa !24
  %22 = sext i32 %21 to i64
  %23 = icmp slt i64 %indvars.iv.next, %22
  br i1 %23, label %16, label %.loopexit, !llvm.loop !37

.loopexit:                                        ; preds = %16, %6, %3
  %.not16 = icmp eq i32 %2, 0
  br i1 %.not16, label %27, label %24

24:                                               ; preds = %.loopexit
  %25 = getelementptr inbounds nuw i8, ptr %0, i64 104
  %26 = tail call i32 @pthread_cond_destroy(ptr noundef nonnull %25) #5
  br label %27

27:                                               ; preds = %24, %.loopexit
  %.not17 = icmp eq i32 %1, 0
  br i1 %.not17, label %31, label %28

28:                                               ; preds = %27
  %29 = getelementptr inbounds nuw i8, ptr %0, i64 64
  %30 = tail call i32 @pthread_mutex_destroy(ptr noundef nonnull %29) #5
  br label %31

31:                                               ; preds = %28, %27
  %32 = getelementptr inbounds nuw i8, ptr %0, i64 48
  %33 = load ptr, ptr %32, align 8, !tbaa !23
  tail call void @av_free(ptr noundef %33) #5
  %34 = getelementptr inbounds nuw i8, ptr %0, i64 56
  %35 = load ptr, ptr %34, align 8, !tbaa !22
  tail call void @av_free(ptr noundef %35) #5
  tail call void @av_free(ptr noundef nonnull %0) #5
  ret void
}